target datalayout = "e-m:e-p270:32:32-p271:32:32-p272:64:64-i64:64-i128:128-f80:128-n8:16:32:64-S128"
target triple = "x86_64-pc-linux-gnu"

; Function Attrs: nounwind uwtable
define dso_local void @matrix_mul_const(i32 noundef %0, ptr noundef %1, ptr noundef %2, i16 noundef signext %3) #0 {
  %5 = alloca i32, align 4
  %6 = alloca ptr, align 8
  %7 = alloca ptr, align 8
  %8 = alloca i16, align 2
  %9 = alloca i32, align 4
  %10 = alloca i32, align 4
  store i32 %0, ptr %5, align 4, !tbaa !16
  store ptr %1, ptr %6, align 8, !tbaa !18
  store ptr %2, ptr %7, align 8, !tbaa !20
  store i16 %3, ptr %8, align 2, !tbaa !9
  call void @llvm.lifetime.start.p0(i64 4, ptr %9) #3
  call void @llvm.lifetime.start.p0(i64 4, ptr %10) #3
  store i32 0, ptr %9, align 4, !tbaa !16
  br label %11

11:                                               ; preds = %46, %4
  %12 = load i32, ptr %9, align 4, !tbaa !16
  %13 = load i32, ptr %5, align 4, !tbaa !16
  %14 = icmp ult i32 %12, %13
  br i1 %14, label %15, label %49

15:                                               ; preds = %11
  store i32 0, ptr %10, align 4, !tbaa !16
  br label %16

16:                                               ; preds = %42, %15
  %17 = load i32, ptr %10, align 4, !tbaa !16
  %18 = load i32, ptr %5, align 4, !tbaa !16
  %19 = icmp ult i32 %17, %18
  br i1 %19, label %20, label %45

20:                                               ; preds = %16
  %21 = load ptr, ptr %7, align 8, !tbaa !20
  %22 = load i32, ptr %9, align 4, !tbaa !16
  %23 = load i32, ptr %5, align 4, !tbaa !16
  %24 = mul i32 %22, %23
  %25 = load i32, ptr %10, align 4, !tbaa !16
  %26 = add i32 %24, %25
  %27 = zext i32 %26 to i64
  %28 = getelementptr inbounds nuw i16, ptr %21, i64 %27
  %29 = load i16, ptr %28, align 2, !tbaa !9
  %30 = sext i16 %29 to i32
  %31 = load i16, ptr %8, align 2, !tbaa !9
  %32 = sext i16 %31 to i32
  %33 = mul nsw i32 %30, %32
  %34 = load ptr, ptr %6, align 8, !tbaa !18
  %35 = load i32, ptr %9, align 4, !tbaa !16
  %36 = load i32, ptr %5, align 4, !tbaa !16
  %37 = mul i32 %35, %36
  %38 = load i32, ptr %10, align 4, !tbaa !16
  %39 = add i32 %37, %38
  %40 = zext i32 %39 to i64
  %41 = getelementptr inbounds nuw i32, ptr %34, i64 %40
  store i32 %33, ptr %41, align 4, !tbaa !16
  br label %42

42:                                               ; preds = %20
  %43 = load i32, ptr %10, align 4, !tbaa !16
  %44 = add i32 %43, 1
  store i32 %44, ptr %10, align 4, !tbaa !16
  br label %16, !llvm.loop !25

45:                                               ; preds = %16
  br label %46

46:                                               ; preds = %45
  %47 = load i32, ptr %9, align 4, !tbaa !16
  %48 = add i32 %47, 1
  store i32 %48, ptr %9, align 4, !tbaa !16
  br label %11, !llvm.loop !26

49:                                               ; preds = %11
  call void @llvm.lifetime.end.p0(i64 4, ptr %10) #3
  call void @llvm.lifetime.end.p0(i64 4, ptr %9) #3
  ret void
}