; Function Attrs: nofree norecurse nosync nounwind memory(argmem: readwrite) uwtable
define dso_local void @matrix_mul_const(i32 noundef %0, ptr noundef writeonly captures(none) %1, ptr noundef readonly captures(none) %2, i16 noundef signext %3) local_unnamed_addr #2 {
  %.not = icmp eq i32 %0, 0
  br i1 %.not, label %._crit_edge, label %.preheader.lr.ph

.preheader.lr.ph:                                 ; preds = %4
  %5 = sext i16 %3 to i32
  %wide.trip.count = zext i32 %0 to i64
  br label %.preheader

.preheader:                                       ; preds = %.preheader.lr.ph, %16
  %.01417 = phi i32 [ 0, %.preheader.lr.ph ], [ %17, %16 ]
  %6 = mul i32 %.01417, %0
  br label %7

7:                                                ; preds = %.preheader, %7
  %indvars.iv = phi i64 [ 0, %.preheader ], [ %indvars.iv.next, %7 ]
  %8 = trunc nuw i64 %indvars.iv to i32
  %9 = add i32 %6, %8
  %10 = zext i32 %9 to i64
  %11 = getelementptr inbounds nuw i16, ptr %2, i64 %10
  %12 = load i16, ptr %11, align 2, !tbaa !15
  %13 = sext i16 %12 to i32
  %14 = mul nsw i32 %13, %5
  %15 = getelementptr inbounds nuw i32, ptr %1, i64 %10
  store i32 %14, ptr %15, align 4, !tbaa !20
  %indvars.iv.next = add nuw nsw i64 %indvars.iv, 1
  %exitcond.not = icmp eq i64 %indvars.iv.next, %wide.trip.count
  br i1 %exitcond.not, label %16, label %7, !llvm.loop !21

16:                                               ; preds = %7
  %17 = add nuw i32 %.01417, 1
  %exitcond19.not = icmp eq i32 %17, %0
  br i1 %exitcond19.not, label %._crit_edge, label %.preheader, !llvm.loop !22

._crit_edge:                                      ; preds = %16, %4
  ret void
}